Certificate:
    Data:
        Version: 3 (0x2)
        Serial Number: 294 (0x126)
    Signature Algorithm: sha1WithRSAEncryption
        Issuer: C=CN, ST=Zhejiang, L=Hangzhou, O=loye.com, OU=Loye, CN=Loye/emailAddress=loye.qiu@gmail.com
        Validity
            Not Before: Sep 11 06:11:40 2012 GMT
            Not After : Sep  9 06:11:40 2022 GMT
        Subject: C=CN, ST=Zhejiang, O=loye.com, OU=Loye, CN=github.com/emailAddress=loye.qiu@gmail.com
        Subject Public Key Info:
            Public Key Algorithm: rsaEncryption
                Public-Key: (1024 bit)
                Modulus:
                    00:a4:04:6c:ec:e3:de:c7:9f:62:5f:e6:77:e0:57:
                    f3:4d:9f:f2:5b:84:3e:65:c4:92:55:b0:e5:0c:bf:
                    ce:d6:0e:66:b2:e1:3d:f1:70:dd:b5:7b:b9:04:96:
                    19:21:87:01:c7:a7:69:41:7b:c3:b2:7f:67:84:57:
                    54:c1:5e:8b:69:c1:27:b1:c1:36:c8:24:80:95:04:
                    60:94:95:e3:5d:fd:17:6c:ba:5f:f9:3c:c4:0f:81:
                    d1:cf:a9:69:b9:87:6a:9b:42:3a:d4:86:ce:97:88:
                    d8:c7:e8:2b:9d:ad:d1:b2:e2:71:e8:36:b5:32:00:
                    63:cc:38:89:a3:bf:8a:69:2d
                Exponent: 65537 (0x10001)
        X509v3 extensions:
            X509v3 Basic Constraints: 
                CA:FALSE
            Netscape Comment: 
                OpenSSL Generated Certificate
            X509v3 Subject Key Identifier: 
                AC:3C:4A:87:81:4A:8C:41:24:9A:90:A2:93:EE:9B:9B:30:DC:70:0F
            X509v3 Authority Key Identifier: 
                keyid:30:3E:B7:D9:F7:59:AF:A3:8E:1E:C7:2A:A2:FE:D3:AE:77:90:A3:4E

    Signature Algorithm: sha1WithRSAEncryption
         47:9c:43:59:96:8b:cb:07:c2:5a:70:90:6e:64:84:a1:fb:37:
         8b:72:60:c9:92:88:88:05:9a:c1:ac:6d:c6:8c:7a:cd:60:6e:
         75:ae:83:bf:94:34:e0:5b:fb:9c:9b:16:fd:8b:56:35:af:49:
         01:33:63:27:98:ba:4a:83:4c:4f:47:68:ba:06:db:ea:fa:20:
         b8:ce:8e:fb:04:cf:64:1c:4f:d7:f3:ba:6b:99:33:c5:80:35:
         fa:7e:b5:68:1a:64:bd:cf:1b:17:97:d0:b6:1b:b6:d6:29:f4:
         a2:ff:a3:4b:65:49:d8:28:f6:c5:a5:f6:1e:7f:44:19:53:b8:
         fa:26:7d:ad:b1:b7:ec:3c:a2:c7:59:c1:35:70:9f:89:81:7f:
         9f:90:f4:bb:29:83:3d:fc:e9:ba:3c:e7:b3:fe:75:6f:2d:2c:
         c4:4a:ae:85:8a:bc:ab:d1:b7:3d:21:1e:66:7d:11:80:54:4e:
         f3:d2:84:de:48:cb:74:cf:52:a1:fc:4a:65:c3:96:90:64:d6:
         3f:1c:cb:1c:73:e2:e6:08:fd:d2:de:d7:2d:19:6b:b8:79:aa:
         c8:f0:74:8e:51:3b:3d:d9:97:5a:03:18:db:56:ce:13:a9:81:
         c0:0a:80:92:d4:c3:7d:bc:7d:5c:19:96:8a:b6:11:d8:9b:60:
         42:73:05:c0
-----BEGIN CERTIFICATE-----
MIIDdTCCAl2gAwIBAgICASYwDQYJKoZIhvcNAQEFBQAwgYcxCzAJBgNVBAYTAkNO
MREwDwYDVQQIDAhaaGVqaWFuZzERMA8GA1UEBwwISGFuZ3pob3UxETAPBgNVBAoM
CGxveWUuY29tMQ0wCwYDVQQLDARMb3llMQ0wCwYDVQQDDARMb3llMSEwHwYJKoZI
hvcNAQkBFhJsb3llLnFpdUBnbWFpbC5jb20wHhcNMTIwOTExMDYxMTQwWhcNMjIw
OTA5MDYxMTQwWjB6MQswCQYDVQQGEwJDTjERMA8GA1UECAwIWmhlamlhbmcxETAP
BgNVBAoMCGxveWUuY29tMQ0wCwYDVQQLDARMb3llMRMwEQYDVQQDDApnaXRodWIu
Y29tMSEwHwYJKoZIhvcNAQkBFhJsb3llLnFpdUBnbWFpbC5jb20wgZ8wDQYJKoZI
hvcNAQEBBQADgY0AMIGJAoGBAKQEbOzj3sefYl/md+BX802f8luEPmXEklWw5Qy/
ztYOZrLhPfFw3bV7uQSWGSGHAcenaUF7w7J/Z4RXVMFei2nBJ7HBNsgkgJUEYJSV
4139F2y6X/k8xA+B0c+pabmHaptCOtSGzpeI2MfoK52t0bLiceg2tTIAY8w4iaO/
imktAgMBAAGjezB5MAkGA1UdEwQCMAAwLAYJYIZIAYb4QgENBB8WHU9wZW5TU0wg
R2VuZXJhdGVkIENlcnRpZmljYXRlMB0GA1UdDgQWBBSsPEqHgUqMQSSakKKT7pub
MNxwDzAfBgNVHSMEGDAWgBQwPrfZ91mvo44exyqi/tOud5CjTjANBgkqhkiG9w0B
AQUFAAOCAQEAR5xDWZaLywfCWnCQbmSEofs3i3JgyZKIiAWawaxtxox6zWBuda6D
v5Q04Fv7nJsW/YtWNa9JATNjJ5i6SoNMT0dougbb6voguM6O+wTPZBxP1/O6a5kz
xYA1+n61aBpkvc8bF5fQthu21in0ov+jS2VJ2Cj2xaX2Hn9EGVO4+iZ9rbG37Dyi
x1nBNXCfiYF/n5D0uymDPfzpujzns/51by0sxEquhYq8q9G3PSEeZn0RgFRO89KE
3kjLdM9SofxKZcOWkGTWPxzLHHPi5gj90t7XLRlruHmqyPB0jlE7PdmXWgMY21bO
E6mBwAqAktTDfbx9XBmWirYR2JtgQnMFwA==
-----END CERTIFICATE-----
-----BEGIN RSA PRIVATE KEY-----
MIICXAIBAAKBgQCkBGzs497Hn2Jf5nfgV/NNn/JbhD5lxJJVsOUMv87WDmay4T3x
cN21e7kElhkhhwHHp2lBe8Oyf2eEV1TBXotpwSexwTbIJICVBGCUleNd/Rdsul/5
PMQPgdHPqWm5h2qbQjrUhs6XiNjH6CudrdGy4nHoNrUyAGPMOImjv4ppLQIDAQAB
AoGAcY5W09QYY+EnvPnVuU9rNi0tIMt4YAEux4FHtAIAdBdYZzSnLEhWV9YnDNPW
5m2Qf+iaaSoFHcozo17LYW3R2vSKRV78lPigRslFvAqf7lCmevayB/vMINv23WvK
Tv9tspk3x44Mw+ryFuHOhWUFpw60Vq2gHpgJyVl0kVzDAIECQQDPolAtNZubcvCg
rd9mfKrmapf6uhhyDIF8q30xDCCJ0nc8GdH4Jtgpnhbdb3WRyhrrFvj9fudnRSzF
85VUWO2RAkEAyjkloWYh0e34pksUVGySvtA+DjZ6iYo+7hkZzFqaWJ5NN3XfX+0q
t+BUjxO5mLwGNXc6F86UNsnq1xq9fmKj3QJAIic0wPr8aYlygzuWb6k6A0StUxSh
SME921/p69Nu1rzD2CL3IrZhABd881eOIzj3TIwu0KO7NIVwY+85NPKbwQJBAMhf
MYsn8LDbE/pqAD3aytio7CQXFPm9crdnRam3yKGwUSB3+hpJnH9Pl1mhmM/e1mQZ
vAUk2rUjAz+aLlLRmD0CQC3JTZGCxNU8AmvYeQb6quMt2k4BraqY1cNqbaV7f7hC
XQal/UFyAudZoA/WKpseWf7fzJoqxPoQS7h4/obQO4M=
-----END RSA PRIVATE KEY-----
